; Function Attrs: mustprogress null_pointer_is_valid sspstrong uwtable
define noundef zeroext i1 @_ZN18CaptureFilterCombo5eventEP6QEvent(ptr noundef align 8 dereferenceable_or_null(48) %0, ptr noundef %1) unnamed_addr #0 align 2 {
  %3 = getelementptr inbounds nuw i8, ptr %1, i64 8
  %4 = load i16, ptr %3, align 8
  %cond = icmp eq i16 %4, 38
  br i1 %cond, label %5, label %6

5:                                                ; preds = %2
  tail call void @_ZN18CaptureFilterCombo16updateStyleSheetEv(ptr noundef align 8 dereferenceable_or_null(48) %0)
  br label %6

6:                                                ; preds = %2, %5
  %7 = tail call noundef zeroext i1 @_ZN9QComboBox5eventEP6QEvent(ptr noundef align 8 dereferenceable_or_null(40) %0, ptr noundef %1)
  ret i1 %7
}